(dp0
S'Pau Gasol'
p1
(lp2
(I150
S'Chi'
p3
tp4
asS'Tibor Pleiss'
p5
(lp6
(I355
S'Uta'
p7
tp8
asS'George Hill'
p9
(lp10
(I196
S'Ind'
p11
tp12
asS'Jarell Martin'
p13
(lp14
(I280
S'Mem'
p15
tp16
asS'Derrick Williams'
p17
(lp18
(I459
S'NY'
p19
tp20
asS'Randy Foye'
p21
(lp22
(I142
S'Den'
p23
tp24
a(I142
S'OKC'
p25
tp26
asS'Mike Miller'
p27
(lp28
(I303
g23
tp29
asS'Luol Deng'
p30
(lp31
(I114
S'Mia'
p32
tp33
asS'Draymond Green'
p34
(lp35
(I166
S'GS'
p36
tp37
asS'Kyle Lowry'
p38
(lp39
(I273
S'Tor'
p40
tp41
asS'Raymond Felton'
p42
(lp43
(I140
S'Dal'
p44
tp45
asS'Thaddeus Young'
p46
(lp47
(I474
S'Bkn'
p48
tp49
asS'Kostas Papanikolaou'
p50
(lp51
(I342
g23
tp52
asS'Kevin Love'
p53
(lp54
(I272
S'Cle'
p55
tp56
asS'Nikola Vucevic'
p57
(lp58
(I441
S'Orl'
p59
tp60
asS'Blake Griffin'
p61
(lp62
(I171
S'LAC'
p63
tp64
asS'Aaron Brooks'
p65
(lp66
(I62
g3
tp67
asS'Larry Nance Jr.'
p68
(lp69
(I322
S'LAL'
p70
tp71
asS'Jodie Meeks'
p72
(lp73
(I297
S'Det'
p74
tp75
asS'Jordan Hamilton'
p76
(lp77
(I174
S'NO'
p78
tp79
asS'Joakim Noah'
p80
(lp81
(I328
g3
tp82
asS'Isaiah Thomas'
p83
(lp84
(I421
S'Bos'
p85
tp86
asS'James Ennis'
p87
(lp88
(I131
g32
tp89
a(I131
g15
tp90
a(I131
g78
tp91
asS'Jared Sullinger'
p92
(lp93
(I415
g85
tp94
asS'Paul Millsap'
p95
(lp96
(I306
S'Atl'
p97
tp98
asS'Avery Bradley'
p99
(lp100
(I59
g85
tp101
asS'Joe Johnson'
p102
(lp103
(I231
g48
tp104
a(I231
g32
tp105
asS'Will Barton'
p106
(lp107
(I36
g23
tp108
asS'Nik Stauskas'
p109
(lp110
(I409
S'Phi'
p111
tp112
asS'Jerami Grant'
p113
(lp114
(I163
g111
tp115
asS'James Jones'
p116
(lp117
(I238
g55
tp118
asS'DeMarcus Cousins'
p119
(lp120
(I97
S'Sac'
p121
tp122
asS'Michael Carter-Williams'
p123
(lp124
(I81
S'Mil'
p125
tp126
asS'Andrew Wiggins'
p127
(lp128
(I455
S'Min'
p129
tp130
asS'Caron Butler'
p131
(lp132
(I71
g121
tp133
asS'Julius Randle'
p134
(lp135
(I367
g70
tp136
asS'Marc Gasol'
p137
(lp138
(I149
g15
tp139
asS'Tony Parker'
p140
(lp141
(I344
S'SA'
p142
tp143
asS'Richaun Holmes'
p144
(lp145
(I205
g111
tp146
asS'LeBron James'
p147
(lp148
(I221
g55
tp149
asS'Brook Lopez'
p150
(lp151
(I270
g48
tp152
asS'Dwight Powell'
p153
(lp154
(I361
g44
tp155
asS'Damian Lillard'
p156
(lp157
(I266
S'Por'
p158
tp159
asS'Zach Randolph'
p160
(lp161
(I368
g15
tp162
asS'Nazr Mohammed'
p163
(lp164
(I308
g25
tp165
asS'Enes Kanter'
p166
(lp167
(I245
g25
tp168
asS'Ty Lawson'
p169
(lp170
(I259
S'Hou'
p171
tp172
a(I259
g11
tp173
asS'Wesley Matthews'
p174
(lp175
(I282
g44
tp176
asS'Sergey Karasev'
p177
(lp178
(I246
g48
tp179
asS'Elijah Millsap'
p180
(lp181
(I305
g7
tp182
asS'Bryce Cotton'
p183
(lp184
(I96
S'Pho'
p185
tp186
a(I96
g15
tp187
asS'Mario Chalmers'
p188
(lp189
(I84
g32
tp190
a(I84
g15
tp191
asS'Terry Rozier'
p192
(lp193
(I381
g85
tp194
asS'Sasha Vujacic'
p195
(lp196
(I442
g19
tp197
asS'Justise Winslow'
p198
(lp199
(I464
g32
tp200
asS'Jerian Grant'
p201
(lp202
(I164
g19
tp203
asS'Salah Mejri'
p204
(lp205
(I298
g44
tp206
asS'John Wall'
p207
(lp208
(I446
S'Was'
p209
tp210
asS'Al-Farouq Aminu'
p211
(lp212
(I11
g158
tp213
asS'Al Horford'
p214
(lp215
(I207
g97
tp216
asS'Lamar Patterson'
p217
(lp218
(I346
g97
tp219
asS"Kyle O'Quinn"
p220
(lp221
(I336
g19
tp222
asS'Festus Ezeli'
p223
(lp224
(I135
g36
tp225
asS'James Johnson'
p226
(lp227
(I230
g40
tp228
asS'Duje Dukan'
p229
(lp230
(I123
g121
tp231
asS'Amir Johnson'
p232
(lp233
(I228
g85
tp234
asS'Jonathon Simmons'
p235
(lp236
(I395
g142
tp237
asS'Luis Montero'
p238
(lp239
(I310
g158
tp240
asS'Tyler Zeller'
p241
(lp242
(I476
g85
tp243
asS'Dorell Wright'
p244
(lp245
(I476
g32
tp246
asS'Montrezl Harrell'
p247
(lp248
(I180
g171
tp249
asS'Chris Kaman'
p250
(lp251
(I243
g158
tp252
asS'Walter Tavares'
p253
(lp254
(I416
g97
tp255
asS'Ersan Ilyasova'
p256
(lp257
(I215
g74
tp258
a(I215
g59
tp259
asS'O.J. Mayo'
p260
(lp261
(I283
g125
tp262
asS'Donatas Motiejunas'
p263
(lp264
(I316
g171
tp265
asS'Aron Baynes'
p266
(lp267
(I40
g74
tp268
asS'Brandon Rush'
p269
(lp270
(I384
g36
tp271
asS'Manu Ginobili'
p272
(lp273
(I155
g142
tp274
asS'Reggie Jackson'
p275
(lp276
(I220
g74
tp277
asS'Kevin Garnett'
p278
(lp279
(I148
g129
tp280
asS'Jimmy Butler'
p281
(lp282
(I72
g3
tp283
asS'Courtney Lee'
p284
(lp285
(I260
g15
tp286
a(I260
S'Cha'
p287
tp288
asS'Cliff Alexander'
p289
(lp290
(I8
g158
tp291
asS'Jorge Gutierrez'
p292
(lp293
(I172
g287
tp294
asS'Jordan Hill'
p295
(lp296
(I197
g11
tp297
asS'Sam Dekker'
p298
(lp299
(I112
g171
tp300
asS'Eric Bledsoe'
p301
(lp302
(I52
g185
tp303
asS'Zaza Pachulia'
p304
(lp305
(I341
g44
tp306
asS'Josh Smith'
p307
(lp308
(I404
g63
tp309
a(I404
g171
tp310
asS'Lucas Nogueira'
p311
(lp312
(I330
g40
tp313
asS'Jamal Crawford'
p314
(lp315
(I100
g63
tp316
asS'Joe Ingles'
p317
(lp318
(I216
g7
tp319
asS'Tyler Johnson'
p320
(lp321
(I234
g32
tp322
asS'Ish Smith'
p323
(lp324
(I401
g78
tp325
a(I401
g111
tp326
asS'Noah Vonleh'
p327
(lp328
(I440
g158
tp329
asS'Metta World Peace'
p330
(lp331
(I467
g70
tp332
asS'Tony Wroten'
p333
(lp334
(I470
g111
tp335
asS'Kobe Bryant'
p336
(lp337
(I66
g70
tp338
asS'Jon Leuer'
p339
(lp340
(I265
g185
tp341
asS'Kentavious Caldwell-Pope'
p342
(lp343
(I76
g74
tp344
asS'Rajon Rondo'
p345
(lp346
(I378
g121
tp347
asS'Luis Scola'
p348
(lp349
(I389
g40
tp350
asS'Cameron Bairstow'
p351
(lp352
(I30
g3
tp353
asS'DeAndre Jordan'
p354
(lp355
(I241
g63
tp356
asS'Jordan Adams'
p357
(lp358
(I2
g15
tp359
asS'Jordan Clarkson'
p360
(lp361
(I89
g70
tp362
asS'Goran Dragic'
p363
(lp364
(I120
g32
tp365
asS'Jeff Withey'
p366
(lp367
(I465
g7
tp368
asS'Danilo Gallinari'
p369
(lp370
(I146
g23
tp371
asS'Stephen Curry'
p372
(lp373
(I105
g36
tp374
asS'Kevin Martin'
p375
(lp376
(I281
g129
tp377
a(I281
g142
tp378
asS'J.J. Hickson'
p379
(lp380
(I194
g23
tp381
a(I194
g209
tp382
asS'Tarik Black'
p383
(lp384
(I49
g70
tp385
asS'Giannis Antetokounmpo'
p386
(lp387
(I19
g125
tp388
asS'Kris Humphries'
p389
(lp390
(I211
g209
tp391
a(I211
g185
tp392
a(I211
g97
tp393
asS'Josh Richardson'
p394
(lp395
(I371
g32
tp396
asS'Wesley Johnson'
p397
(lp398
(I235
g63
tp399
asS'Kelly Olynyk'
p400
(lp401
(I339
g85
tp402
asS'Steven Adams'
p403
(lp404
(I3
g25
tp405
asS'T.J. McConnell'
p406
(lp407
(I288
g111
tp408
asS'David West'
p409
(lp410
(I451
g142
tp411
asS'Phil Pressey'
p412
(lp413
(I363
g111
tp414
a(I363
g185
tp415
asS'Pablo Prigioni'
p416
(lp417
(I365
g63
tp418
asS'Jeremy Evans'
p419
(lp420
(I133
g44
tp421
asS'Tyus Jones'
p422
(lp423
(I240
g129
tp424
asS'James Young'
p425
(lp426
(I471
g85
tp427
asS'Elfrid Payton'
p428
(lp429
(I351
g59
tp430
asS'Axel Toupane'
p431
(lp432
(I429
g23
tp433
asS'Gary Neal'
p434
(lp435
(I324
g209
tp436
asS'LaMarcus Aldridge'
p437
(lp438
(I7
g142
tp439
asS'Rodney Stuckey'
p440
(lp441
(I414
g11
tp442
asS'Troy Daniels'
p443
(lp444
(I106
g287
tp445
asS'Beno Udrih'
p446
(lp447
(I434
g15
tp448
a(I434
g32
tp449
asS'Omri Casspi'
p450
(lp451
(I82
g121
tp452
asS'Chris Paul'
p453
(lp454
(I348
g63
tp455
asS'Marcus Smart'
p456
(lp457
(I399
g85
tp458
asS'Kemba Walker'
p459
(lp460
(I445
g287
tp461
asS'John Jenkins'
p462
(lp463
(I225
g44
tp464
a(I225
g185
tp465
asS'Trevor Booker'
p466
(lp467
(I57
g7
tp468
asS'J.J. Barea'
p469
(lp470
(I32
g44
tp471
asS'Tyreke Evans'
p472
(lp473
(I134
g78
tp474
asS'Reggie Bullock'
p475
(lp476
(I68
g74
tp477
asS'Meyers Leonard'
p478
(lp479
(I264
g158
tp480
asS'Mike Conley'
p481
(lp482
(I93
g15
tp483
asS'P.J. Tucker'
p484
(lp485
(I431
g185
tp486
asS'Keith Appling'
p487
(lp488
(I23
g59
tp489
asS'Marcus Thornton'
p490
(lp491
(I427
g171
tp492
a(I427
g209
tp493
asS'Alan Anderson'
p494
(lp495
(I14
g209
tp496
asS'Michael Kidd-Gilchrist'
p497
(lp498
(I249
g287
tp499
asS'Chase Budinger'
p500
(lp501
(I67
g11
tp502
a(I67
g185
tp503
asS'Pat Connaughton'
p504
(lp505
(I94
g158
tp506
asS'Kirk Hinrich'
p507
(lp508
(I200
g3
tp509
a(I200
g97
tp510
asS'Evan Turner'
p511
(lp512
(I432
g85
tp513
asS'Trevor Ariza'
p514
(lp515
(I24
g171
tp516
asS'Cameron Payne'
p517
(lp518
(I350
g25
tp519
asS'T.J. Warren'
p520
(lp521
(I447
g185
tp522
asS'Cory Joseph'
p523
(lp524
(I242
g40
tp525
asS'Monta Ellis'
p526
(lp527
(I130
g11
tp528
asS'Lavoy Allen'
p529
(lp530
(I9
g11
tp531
asS'Zach LaVine'
p532
(lp533
(I258
g129
tp534
asS'Mike Scott'
p535
(lp536
(I390
g97
tp537
asS'Shelvin Mack'
p538
(lp539
(I275
g97
tp540
a(I275
g7
tp541
asS'Jeff Green'
p542
(lp543
(I170
g15
tp544
a(I170
g63
tp545
asS'Donald Sloan'
p546
(lp547
(I398
g48
tp548
asS'Gorgui Dieng'
p549
(lp550
(I117
g129
tp551
asS'Roy Hibbert'
p552
(lp553
(I193
g70
tp554
asS'Russ Smith'
p555
(lp556
(I405
g15
tp557
asS'C.J. Wilcox'
p558
(lp559
(I456
g63
tp560
asS'Tony Allen'
p561
(lp562
(I10
g15
tp563
asS'Ed Davis'
p564
(lp565
(I108
g158
tp566
asS'Kevin Durant'
p567
(lp568
(I126
g25
tp569
asS'Xavier Munford'
p570
(lp571
(I320
g15
tp572
asS'Devyn Marble'
p573
(lp574
(I277
g59
tp575
asS'Chris Johnson'
p576
(lp577
(I229
g7
tp578
asS'JaVale McGee'
p579
(lp580
(I293
g44
tp581
asS'Justin Anderson'
p582
(lp583
(I16
g44
tp584
asS'Austin Rivers'
p585
(lp586
(I372
g63
tp587
asS'Corey Brewer'
p588
(lp589
(I61
g171
tp590
asS'Alan Williams'
p591
(lp592
(I457
g185
tp593
asS'Mirza Teletovic'
p594
(lp595
(I418
g185
tp596
asS'Kyrie Irving'
p597
(lp598
(I218
g55
tp599
asS'Darrell Arthur'
p600
(lp601
(I25
g23
tp602
asS'Darrun Hilliard'
p603
(lp604
(I199
g74
tp605
asS'Joe Harris'
p606
(lp607
(I183
g55
tp608
asS'Nene Hilario'
p609
(lp610
(I195
g209
tp611
asS'Rakeem Christmas'
p612
(lp613
(I86
g11
tp614
asS'Jason Terry'
p615
(lp616
(I420
g171
tp617
asS'Thomas Robinson'
p618
(lp619
(I377
g48
tp620
asS'Rudy Gobert'
p621
(lp622
(I156
g7
tp623
asS'Sonny Weems'
p624
(lp625
(I450
g185
tp626
a(I450
g111
tp627
asS'David Lee'
p628
(lp629
(I261
g85
tp630
a(I261
g44
tp631
asS'Erick Green'
p632
(lp633
(I167
g23
tp634
a(I167
g7
tp635
asS'Kenneth Faried'
p636
(lp637
(I136
g23
tp638
asS'Shaun Livingston'
p639
(lp640
(I268
g36
tp641
asS'Branden Dawson'
p642
(lp643
(I109
g63
tp644
asS'Vince Carter'
p645
(lp646
(I80
g15
tp647
asS'Bradley Beal'
p648
(lp649
(I42
g209
tp650
asS'Chris Copeland'
p651
(lp652
(I95
g125
tp653
asS'Jose Calderon'
p654
(lp655
(I75
g19
tp656
asS'Jared Cunningham'
p657
(lp658
(I103
g55
tp659
a(I103
g125
tp660
asS'Miles Plumlee'
p661
(lp662
(I357
g125
tp663
asS'P.J. Hairston'
p664
(lp665
(I173
g287
tp666
a(I173
g15
tp667
asS'Tyler Ennis'
p668
(lp669
(I132
g125
tp670
asS'Rasual Butler'
p671
(lp672
(I73
g142
tp673
asS'C.J. McCollum'
p674
(lp675
(I287
g158
tp676
asS'Nick Young'
p677
(lp678
(I473
g70
tp679
asS'Nikola Pekovic'
p680
(lp681
(I352
g129
tp682
asS'Adreian Payne'
p683
(lp684
(I349
g129
tp685
asS'Tim Hardaway'
p686
(lp687
(I176
g97
tp688
asS'Chris McCullough'
p689
(lp690
(I289
g48
tp691
asS'Kosta Koufos'
p692
(lp693
(I253
g121
tp694
asS'Toney Douglas'
p695
(lp696
(I119
g78
tp697
asS'Briante Weber'
p698
(lp699
(I449
g15
tp700
a(I449
g32
tp701
asS'Anderson Varejao'
p702
(lp703
(I436
g55
tp704
a(I436
g36
tp705
asS'Norris Cole'
p706
(lp707
(I90
g78
tp708
asS'Tyler Hansbrough'
p709
(lp710
(I175
g287
tp711
asS'Justin Holiday'
p712
(lp713
(I202
g97
tp714
a(I202
g3
tp715
asS'Patrick Mills'
p716
(lp717
(I304
g142
tp718
asS'Norman Powell'
p719
(lp720
(I362
g40
tp721
asS'Marvin Williams'
p722
(lp723
(I462
g287
tp724
asS'Jeff Ayres'
p725
(lp726
(I28
g63
tp727
asS'Devin Booker'
p728
(lp729
(I56
g185
tp730
asS'Raul Neto'
p731
(lp732
(I326
g7
tp733
asS'Jameer Nelson'
p734
(lp735
(I325
g23
tp736
asS'Bismack Biyombo'
p737
(lp738
(I47
g40
tp739
asS'Jarnell Stokes'
p740
(lp741
(I412
g15
tp742
a(I412
g32
tp743
asS'Deron Williams'
p744
(lp745
(I458
g44
tp746
asS'Willie Cauley-Stein'
p747
(lp748
(I83
g121
tp749
asS'Luc Mbah a Moute'
p750
(lp751
(I284
g63
tp752
asS'Mo Williams'
p753
(lp754
(I463
g55
tp755
asS'Steve Blake'
p756
(lp757
(I51
g74
tp758
asS'Patrick Beverley'
p759
(lp760
(I46
g171
tp761
asS'Udonis Haslem'
p762
(lp763
(I186
g32
tp764
asS'Karl-Anthony Towns'
p765
(lp766
(I430
g129
tp767
asS'Anthony Tolliver'
p768
(lp769
(I428
g74
tp770
asS'Kendall Marshall'
p771
(lp772
(I279
g111
tp773
asS'Archie Goodwin'
p774
(lp775
(I158
g185
tp776
asS'Eric Moreland'
p777
(lp778
(I312
g121
tp779
asS'K.J. McDaniels'
p780
(lp781
(I290
g171
tp782
asS'Taj Gibson'
p783
(lp784
(I154
g3
tp785
asS'Anthony Davis'
p786
(lp787
(I107
g78
tp788
asS'Doug McDermott'
p789
(lp790
(I291
g3
tp791
asS'Paul Pierce'
p792
(lp793
(I354
g63
tp794
asS'Lorenzo Brown'
p795
(lp796
(I64
g185
tp797
asS'Kevin Seraphin'
p798
(lp799
(I392
g19
tp800
asS'Justin Harper'
p801
(lp802
(I179
g74
tp803
asS'Khris Middleton'
p804
(lp805
(I300
g125
tp806
asS'Solomon Hill'
p807
(lp808
(I198
g11
tp809
asS'Robin Lopez'
p810
(lp811
(I271
g19
tp812
asS'Joel Anthony'
p813
(lp814
(I22
g74
tp815
asS'Tim Frazier'
p816
(lp817
(I143
g158
tp818
a(I143
g78
tp819
asS'Glenn Robinson'
p820
(lp821
(I375
g11
tp822
asS'Willie Reed'
p823
(lp824
(I370
g48
tp825
asS'Lance Stephenson'
p826
(lp827
(I410
g63
tp828
a(I410
g15
tp829
asS"E'Twaun Moore"
p830
(lp831
(I311
g3
tp832
asS'Frank Kaminsky'
p833
(lp834
(I244
g287
tp835
asS'Brandon Knight'
p836
(lp837
(I251
g185
tp838
asS'Carmelo Anthony'
p839
(lp840
(I21
g19
tp841
asS'Hollis Thompson'
p842
(lp843
(I423
g111
tp844
asS'Shayne Whittington'
p845
(lp846
(I454
g11
tp847
asS'Jae Crowder'
p848
(lp849
(I101
g85
tp850
asS'Spencer Hawes'
p851
(lp852
(I187
g287
tp853
asS'Cleanthony Early'
p854
(lp855
(I127
g19
tp856
asS'Chuck Hayes'
p857
(lp858
(I188
g171
tp859
asS'Jeremy Lamb'
p860
(lp861
(I254
g287
tp862
asS'Tiago Splitter'
p863
(lp864
(I408
g97
tp865
asS'Orlando Johnson'
p866
(lp867
(I232
g185
tp868
a(I232
g78
tp869
asS'Thabo Sefolosha'
p870
(lp871
(I391
g97
tp872
asS'Kyle Korver'
p873
(lp874
(I252
g97
tp875
asS'Brandon Bass'
p876
(lp877
(I37
g70
tp878
asS'Nick Collison'
p879
(lp880
(I92
g25
tp881
asS'Cory Jefferson'
p882
(lp883
(I223
g185
tp884
asS'Cole Aldrich'
p885
(lp886
(I6
g63
tp887
asS'Josh McRoberts'
p888
(lp889
(I296
g32
tp890
asS'JaMychal Green'
p891
(lp892
(I169
g15
tp893
asS'Timofey Mozgov'
p894
(lp895
(I317
g55
tp896
asS'Robert Covington'
p897
(lp898
(I98
g111
tp899
asS'Dewayne Dedmon'
p900
(lp901
(I110
g59
tp902
asS'Luke Babbitt'
p903
(lp904
(I29
g78
tp905
asS'Kyle Singler'
p906
(lp907
(I397
g25
tp908
asS'Hassan Whiteside'
p909
(lp910
(I453
g32
tp911
asS'Anthony Morrow'
p912
(lp913
(I315
g25
tp914
asS'Greivis Vasquez'
p915
(lp916
(I437
g125
tp917
asS"Amar'e Stoudemire"
p918
(lp919
(I413
g32
tp920
asS'C.J. Watson'
p921
(lp922
(I448
g59
tp923
asS'Ramon Sessions'
p924
(lp925
(I393
g209
tp926
asS'Quincy Acy'
p927
(lp928
(I1
g121
tp929
asS'Ricky Rubio'
p930
(lp931
(I382
g129
tp932
asS'Bobby Portis'
p933
(lp934
(I359
g3
tp935
asS'Andrew Goudelock'
p936
(lp937
(I162
g171
tp938
asS'Rudy Gay'
p939
(lp940
(I151
g121
tp941
asS'Jahlil Okafor'
p942
(lp943
(I337
g111
tp944
asS'Aaron Harrison'
p945
(lp946
(I185
g287
tp947
asS'Boris Diaw'
p948
(lp949
(I116
g142
tp950
asS'Allen Crabbe'
p951
(lp952
(I99
g158
tp953
asS'Brandon Jennings'
p954
(lp955
(I226
g74
tp956
a(I226
g59
tp957
asS'Drew Gooden'
p958
(lp959
(I157
g209
tp960
asS'Dwyane Wade'
p961
(lp962
(I443
g32
tp963
asS'Jordan Mickey'
p964
(lp965
(I299
g85
tp966
asS'Jordan Farmar'
p967
(lp968
(I137
g15
tp969
asS'Garrett Temple'
p970
(lp971
(I419
g209
tp972
asS'Klay Thompson'
p973
(lp974
(I425
g36
tp975
asS'Rondae Hollis-Jefferson'
p976
(lp977
(I204
g48
tp978
asS'Patrick Patterson'
p979
(lp980
(I347
g40
tp981
asS'Isaiah Canaan'
p982
(lp983
(I77
g111
tp984
asS'Gordon Hayward'
p985
(lp986
(I189
g7
tp987
asS'Marco Belinelli'
p988
(lp989
(I44
g121
tp990
asS'Markel Brown'
p991
(lp992
(I65
g48
tp993
asS'Rodney Hood'
p994
(lp995
(I206
g7
tp996
asS'DeMarre Carroll'
p997
(lp998
(I79
g40
tp999
asS'Mike Dunleavy'
p1000
(lp1001
(I125
g3
tp1002
asS'Jimmer Fredette'
p1003
(lp1004
(I144
g78
tp1005
a(I144
g19
tp1006
asS'Chris Bosh'
p1007
(lp1008
(I58
g32
tp1009
asS'Jonas Valanciunas'
p1010
(lp1011
(I435
g40
tp1012
asS'Alex Stepheson'
p1013
(lp1014
(I411
g63
tp1015
a(I411
g15
tp1016
asS'Kyle Anderson'
p1017
(lp1018
(I17
g142
tp1019
asS'Langston Galloway'
p1020
(lp1021
(I147
g19
tp1022
asS'Harrison Barnes'
p1023
(lp1024
(I34
g36
tp1025
asS'Robert Sacre'
p1026
(lp1027
(I386
g70
tp1028
asS'Ian Clark'
p1029
(lp1030
(I87
g36
tp1031
asS'Seth Curry'
p1032
(lp1033
(I104
g121
tp1034
asS'James Michael McAdoo'
p1035
(lp1036
(I285
g36
tp1037
asS'Kelly Oubre'
p1038
(lp1039
(I340
g209
tp1040
asS'Brandan Wright'
p1041
(lp1042
(I468
g15
tp1043
asS"Johnny O'Bryant"
p1044
(lp1045
(I335
g125
tp1046
asS'Bojan Bogdanovic'
p1047
(lp1048
(I53
g48
tp1049
asS'Steve Novak'
p1050
(lp1051
(I331
g25
tp1052
a(I331
g125
tp1053
asS'Omer Asik'
p1054
(lp1055
(I26
g78
tp1056
asS"D'Angelo Russell"
p1057
(lp1058
(I385
g70
tp1059
asS'Henry Sims'
p1060
(lp1061
(I396
g48
tp1062
asS'Dante Cunningham'
p1063
(lp1064
(I102
g78
tp1065
asS'Tristan Thompson'
p1066
(lp1067
(I426
g55
tp1068
asS'Marcelo Huertas'
p1069
(lp1070
(I209
g70
tp1071
asS'Kevon Looney'
p1072
(lp1073
(I269
g36
tp1074
asS'Michael Beasley'
p1075
(lp1076
(I43
g171
tp1077
asS'Charlie Villanueva'
p1078
(lp1079
(I439
g44
tp1080
asS'Marreese Speights'
p1081
(lp1082
(I407
g36
tp1083
asS'Greg Smith'
p1084
(lp1085
(I400
g129
tp1086
asS'Damjan Rudez'
p1087
(lp1088
(I383
g129
tp1089
asS'Mike Muscala'
p1090
(lp1091
(I321
g97
tp1092
asS'Tobias Harris'
p1093
(lp1094
(I184
g59
tp1095
a(I184
g74
tp1096
asS'J.R. Smith'
p1097
(lp1098
(I402
g55
tp1099
asS'Cristiano Felicio'
p1100
(lp1101
(I139
g3
tp1102
asS'Lou Williams'
p1103
(lp1104
(I461
g70
tp1105
asS'Eric Gordon'
p1106
(lp1107
(I160
g78
tp1108
asS'Anthony Bennett'
p1109
(lp1110
(I45
g40
tp1111
asS'Matt Bonner'
p1112
(lp1113
(I55
g142
tp1114
asS'Ian Mahinmi'
p1115
(lp1116
(I276
g11
tp1117
asS'Clint Capela'
p1118
(lp1119
(I78
g171
tp1120
asS'Danny Green'
p1121
(lp1122
(I165
g142
tp1123
asS'Aaron Gordon'
p1124
(lp1125
(I159
g59
tp1126
asS'Damien Inglis'
p1127
(lp1128
(I217
g125
tp1129
asS'J.J. Redick'
p1130
(lp1131
(I369
g63
tp1132
asS'Russell Westbrook'
p1133
(lp1134
(I452
g25
tp1135
asS'Trey Lyles'
p1136
(lp1137
(I274
g7
tp1138
asS'Dirk Nowitzki'
p1139
(lp1140
(I332
g44
tp1141
asS'Ben McLemore'
p1142
(lp1143
(I294
g121
tp1144
asS'DeMar DeRozan'
p1145
(lp1146
(I115
g40
tp1147
asS'Tim Duncan'
p1148
(lp1149
(I124
g142
tp1150
asS'Wayne Ellington'
p1151
(lp1152
(I129
g48
tp1153
asS'Richard Jefferson'
p1154
(lp1155
(I224
g55
tp1156
asS'Mason Plumlee'
p1157
(lp1158
(I356
g158
tp1159
asS'Matt Barnes'
p1160
(lp1161
(I35
g15
tp1162
asS'Lance Thomas'
p1163
(lp1164
(I422
g19
tp1165
asS'Shabazz Napier'
p1166
(lp1167
(I323
g59
tp1168
asS'Emmanuel Mudiay'
p1169
(lp1170
(I318
g23
tp1171
asS'Dahntay Jones'
p1172
(lp1173
(I237
g55
tp1174
asS'Elliot Williams'
p1175
(lp1176
(I460
g15
tp1177
asS'Jeff Teague'
p1178
(lp1179
(I417
g97
tp1180
asS'Iman Shumpert'
p1181
(lp1182
(I394
g55
tp1183
asS'Andrew Nicholson'
p1184
(lp1185
(I327
g59
tp1186
asS'Anthony Brown'
p1187
(lp1188
(I63
g70
tp1189
asS'Ryan Anderson'
p1190
(lp1191
(I18
g78
tp1192
asS'Dennis Schroder'
p1193
(lp1194
(I388
g97
tp1195
asS'Ray McCallum'
p1196
(lp1197
(I286
g142
tp1198
a(I286
g15
tp1199
asS'Joffrey Lauvergne'
p1200
(lp1201
(I257
g23
tp1202
asS'Serge Ibaka'
p1203
(lp1204
(I213
g25
tp1205
asS'Sean Kilpatrick'
p1206
(lp1207
(I250
g23
tp1208
a(I250
g48
tp1209
asS'Tyson Chandler'
p1210
(lp1211
(I85
g185
tp1212
asS'Jerryd Bayless'
p1213
(lp1214
(I39
g125
tp1215
asS'Bruno Caboclo'
p1216
(lp1217
(I74
g40
tp1218
asS'John Holland'
p1219
(lp1220
(I477
g85
tp1221
asS'Ryan Kelly'
p1222
(lp1223
(I248
g70
tp1224
asS'Spencer Dinwiddie'
p1225
(lp1226
(I118
g74
tp1227
asS'Carl Landry'
p1228
(lp1229
(I255
g111
tp1230
asS'C.J. Miles'
p1231
(lp1232
(I301
g11
tp1233
asS'Coty Clarke'
p1234
(lp1235
(I88
g85
tp1236
asS'Jason Thompson'
p1237
(lp1238
(I424
g36
tp1239
a(I424
g40
tp1240
asS'Tony Snell'
p1241
(lp1242
(I406
g3
tp1243
asS'Dion Waiters'
p1244
(lp1245
(I444
g25
tp1246
asS'Andre Miller'
p1247
(lp1248
(I302
g129
tp1249
a(I302
g142
tp1250
asS'Kent Bazemore'
p1251
(lp1252
(I41
g97
tp1253
asS'Nikola Jokic'
p1254
(lp1255
(I236
g23
tp1256
asS'Nemanja Bjelica'
p1257
(lp1258
(I48
g129
tp1259
asS'Tayshaun Prince'
p1260
(lp1261
(I366
g129
tp1262
asS'DeJuan Blair'
p1263
(lp1264
(I50
g209
tp1265
asS'Terrence Ross'
p1266
(lp1267
(I380
g40
tp1268
asS'Thanasis Antetokounmpo'
p1269
(lp1270
(I20
g19
tp1271
asS'Gerald Henderson'
p1272
(lp1273
(I190
g158
tp1274
asS'Andre Drummond'
p1275
(lp1276
(I121
g74
tp1277
asS'Nicolas Batum'
p1278
(lp1279
(I38
g287
tp1280
asS'Andrea Bargnani'
p1281
(lp1282
(I33
g48
tp1283
asS'James Anderson'
p1284
(lp1285
(I15
g121
tp1286
asS'Arron Afflalo'
p1287
(lp1288
(I4
g19
tp1289
asS'Jordan McRae'
p1290
(lp1291
(I295
g185
tp1292
a(I295
g55
tp1293
asS'Cody Zeller'
p1294
(lp1295
(I475
g287
tp1296
asS'Marcus Morris'
p1297
(lp1298
(I313
g74
tp1299
asS'Derrick Rose'
p1300
(lp1301
(I379
g3
tp1302
asS'Myles Turner'
p1303
(lp1304
(I433
g11
tp1305
asS'Ronnie Price'
p1306
(lp1307
(I364
g185
tp1308
asS'Maurice Harkless'
p1309
(lp1310
(I178
g158
tp1311
asS'Brian Roberts'
p1312
(lp1313
(I374
g287
tp1314
a(I374
g158
tp1315
asS'Marcin Gortat'
p1316
(lp1317
(I161
g209
tp1318
asS'Kawhi Leonard'
p1319
(lp1320
(I263
g142
tp1321
asS'Al Jefferson'
p1322
(lp1323
(I222
g287
tp1324
asS'Channing Frye'
p1325
(lp1326
(I145
g59
tp1327
a(I145
g55
tp1328
asS'Devin Harris'
p1329
(lp1330
(I181
g44
tp1331
asS'Shane Larkin'
p1332
(lp1333
(I256
g48
tp1334
asS'Otto Porter'
p1335
(lp1336
(I358
g209
tp1337
asS'Darren Collison'
p1338
(lp1339
(I91
g121
tp1340
asS'Alec Burks'
p1341
(lp1342
(I70
g7
tp1343
asS'JaKarr Sampson'
p1344
(lp1345
(I387
g111
tp1346
a(I387
g23
tp1347
asS'Nerlens Noel'
p1348
(lp1349
(I329
g111
tp1350
asS'Jabari Parker'
p1351
(lp1352
(I343
g125
tp1353
asS'Boban Marjanovic'
p1354
(lp1355
(I278
g142
tp1356
asS'Andre Iguodala'
p1357
(lp1358
(I214
g36
tp1359
asS'Stanley Johnson'
p1360
(lp1361
(I233
g74
tp1362
asS'Alonzo Gee'
p1363
(lp1364
(I152
g78
tp1365
asS'Gary Harris'
p1366
(lp1367
(I182
g23
tp1368
asS'Elton Brand'
p1369
(lp1370
(I60
g111
tp1371
asS'Evan Fournier'
p1372
(lp1373
(I141
g59
tp1374
asS'Mario Hezonja'
p1375
(lp1376
(I192
g59
tp1377
asS'Jared Dudley'
p1378
(lp1379
(I122
g209
tp1380
asS'John Henson'
p1381
(lp1382
(I191
g125
tp1383
asS'Trey Burke'
p1384
(lp1385
(I69
g7
tp1386
asS'Andre Roberson'
p1387
(lp1388
(I373
g25
tp1389
asS'Jusuf Nurkic'
p1390
(lp1391
(I333
g23
tp1392
asS'Jonas Jerebko'
p1393
(lp1394
(I227
g85
tp1395
asS'Jason Smith'
p1396
(lp1397
(I403
g59
tp1398
asS'Jarrett Jack'
p1399
(lp1400
(I219
g48
tp1401
asS"J.J. O'Brien"
p1402
(lp1403
(I334
g7
tp1404
asS'Markieff Morris'
p1405
(lp1406
(I314
g185
tp1407
a(I314
g209
tp1408
asS'Alex Len'
p1409
(lp1410
(I262
g185
tp1411
asS'Ryan Hollins'
p1412
(lp1413
(I203
g209
tp1414
a(I203
g15
tp1415
asS'Dwight Howard'
p1416
(lp1417
(I208
g171
tp1418
asS'Matthew Dellavedova'
p1419
(lp1420
(I113
g55
tp1421
asS'Greg Monroe'
p1422
(lp1423
(I309
g125
tp1424
asS'Shabazz Muhammad'
p1425
(lp1426
(I319
g129
tp1427
asS'Kristaps Porzingis'
p1428
(lp1429
(I360
g19
tp1430
asS'Chandler Parsons'
p1431
(lp1432
(I345
g44
tp1433
asS'Chris Andersen'
p1434
(lp1435
(I13
g32
tp1436
a(I13
g15
tp1437
asS'Mitch McGary'
p1438
(lp1439
(I292
g25
tp1440
asS'Sasha Kaun'
p1441
(lp1442
(I247
g55
tp1443
asS'James Harden'
p1444
(lp1445
(I177
g171
tp1446
asS'Gerald Green'
p1447
(lp1448
(I168
g32
tp1449
asS'Nikola Mirotic'
p1450
(lp1451
(I307
g3
tp1452
asS'Nate Robinson'
p1453
(lp1454
(I376
g78
tp1455
asS'Victor Oladipo'
p1456
(lp1457
(I338
g59
tp1458
asS'Delon Wright'
p1459
(lp1460
(I469
g40
tp1461
asS'D.J. Augustin'
p1462
(lp1463
(I27
g25
tp1464
a(I27
g23
tp1465
asS'R.J. Hunter'
p1466
(lp1467
(I212
g85
tp1468
asS'Jarell Eddie'
p1469
(lp1470
(I128
g209
tp1471
asS'Andrew Bogut'
p1472
(lp1473
(I54
g36
tp1474
asS'Derrick Favors'
p1475
(lp1476
(I138
g7
tp1477
asS'Kendrick Perkins'
p1478
(lp1479
(I353
g78
tp1480
asS'Jrue Holiday'
p1481
(lp1482
(I201
g78
tp1483
asS'Terrence Jones'
p1484
(lp1485
(I239
g171
tp1486
asS'Bryce Dejean-Jones'
p1487
(lp1488
(I111
g78
tp1489
asS'Jeremy Lin'
p1490
(lp1491
(I267
g287
tp1492
asS'Josh Huestis'
p1493
(lp1494
(I210
g25
tp1495
asS'Joseph Young'
p1496
(lp1497
(I472
g11
tp1498
asS'Alexis Ajinca'
p1499
(lp1500
(I5
g78
tp1501
asS'Rashad Vaughn'
p1502
(lp1503
(I438
g125
tp1504
asS'Paul George'
p1505
(lp1506
(I153
g11
tp1507
asS'Lou Amundson'
p1508
(lp1509
(I12
g19
tp1510
asS'Christian Wood'
p1511
(lp1512
(I466
g111
tp1513
asS'Leandro Barbosa'
p1514
(lp1515
(I31
g36
tp1516
as.